target datalayout = "e-m:e-p270:32:32-p271:32:32-p272:64:64-i64:64-i128:128-f80:128-n8:16:32:64-S128"
target triple = "x86_64-pc-linux-gnu"

%struct.SDL_AtomicInt = type { i32 }
%struct.SDL_InitState = type { %struct.SDL_AtomicInt, i64, ptr }

@SDL_objects_init = internal global %struct.SDL_InitState zeroinitializer, align 8
@SDL_objects = internal global ptr null, align 8

; Function Attrs: nounwind uwtable
define hidden void @SDL_SetObjectValid(ptr noundef %0, i32 noundef %1, i1 noundef zeroext %2) #0 {
  %4 = alloca ptr, align 8
  %5 = alloca i32, align 4
  %6 = alloca i8, align 1
  %7 = alloca i8, align 1
  %8 = alloca i32, align 4
  store ptr %0, ptr %4, align 8
  store i32 %1, ptr %5, align 4
  %9 = zext i1 %2 to i8
  store i8 %9, ptr %6, align 1
  br label %10

10:                                               ; preds = %3
  br label %11

11:                                               ; preds = %10
  %12 = call zeroext i1 @SDL_ShouldInit_REAL(ptr noundef @SDL_objects_init)
  br i1 %12, label %13, label %27

13:                                               ; preds = %11
  %14 = call ptr @SDL_CreateHashTable(i32 noundef 0, i1 noundef zeroext true, ptr noundef @SDL_HashObject, ptr noundef @SDL_KeyMatchObject, ptr noundef null, ptr noundef null)
  store ptr %14, ptr @SDL_objects, align 8
  call void @llvm.lifetime.start.p0(i64 1, ptr %7) #6
  %15 = load ptr, ptr @SDL_objects, align 8
  %16 = icmp ne ptr %15, null
  %17 = zext i1 %16 to i8
  store i8 %17, ptr %7, align 1
  %18 = load i8, ptr %7, align 1, !range !5, !noundef !6
  %19 = trunc i8 %18 to i1
  call void @SDL_SetInitialized_REAL(ptr noundef @SDL_objects_init, i1 noundef zeroext %19)
  %20 = load i8, ptr %7, align 1, !range !5, !noundef !6
  %21 = trunc i8 %20 to i1
  br i1 %21, label %23, label %22

22:                                               ; preds = %13
  store i32 1, ptr %8, align 4
  br label %24

23:                                               ; preds = %13
  store i32 0, ptr %8, align 4
  br label %24

24:                                               ; preds = %23, %22
  call void @llvm.lifetime.end.p0(i64 1, ptr %7) #6
  %25 = load i32, ptr %8, align 4
  switch i32 %25, label %42 [
    i32 0, label %26
    i32 1, label %41
  ]

26:                                               ; preds = %24
  br label %27

27:                                               ; preds = %26, %11
  %28 = load i8, ptr %6, align 1, !range !5, !noundef !6
  %29 = trunc i8 %28 to i1
  br i1 %29, label %30, label %37

30:                                               ; preds = %27
  %31 = load ptr, ptr @SDL_objects, align 8
  %32 = load ptr, ptr %4, align 8
  %33 = load i32, ptr %5, align 4
  %34 = zext i32 %33 to i64
  %35 = inttoptr i64 %34 to ptr
  %36 = call zeroext i1 @SDL_InsertIntoHashTable(ptr noundef %31, ptr noundef %32, ptr noundef %35, i1 noundef zeroext true)
  br label %41

37:                                               ; preds = %27
  %38 = load ptr, ptr @SDL_objects, align 8
  %39 = load ptr, ptr %4, align 8
  %40 = call zeroext i1 @SDL_RemoveFromHashTable(ptr noundef %38, ptr noundef %39)
  br label %41

41:                                               ; preds = %24, %37, %30
  ret void

42:                                               ; preds = %24
  unreachable
}