; Function Attrs: nounwind uwtable
define hidden void @SDL_SetObjectValid(ptr noundef %0, i32 noundef %1, i1 noundef zeroext %2) local_unnamed_addr #4 {
  %4 = tail call zeroext i1 @SDL_ShouldInit_REAL(ptr noundef nonnull @SDL_objects_init) #10
  br i1 %4, label %5, label %8

5:                                                ; preds = %3
  %6 = tail call ptr @SDL_CreateHashTable(i32 noundef 0, i1 noundef zeroext true, ptr noundef nonnull @SDL_HashObject, ptr noundef nonnull @SDL_KeyMatchObject, ptr noundef null, ptr noundef null) #10
  store ptr %6, ptr @SDL_objects, align 8
  %7 = icmp ne ptr %6, null
  tail call void @SDL_SetInitialized_REAL(ptr noundef nonnull @SDL_objects_init, i1 noundef zeroext %7) #10
  br i1 %7, label %8, label %16

8:                                                ; preds = %5, %3
  %9 = load ptr, ptr @SDL_objects, align 8
  br i1 %2, label %10, label %14

10:                                               ; preds = %8
  %11 = zext i32 %1 to i64
  %12 = inttoptr i64 %11 to ptr
  %13 = tail call zeroext i1 @SDL_InsertIntoHashTable(ptr noundef %9, ptr noundef %0, ptr noundef %12, i1 noundef zeroext true) #10
  br label %16

14:                                               ; preds = %8
  %15 = tail call zeroext i1 @SDL_RemoveFromHashTable(ptr noundef %9, ptr noundef %0) #10
  br label %16

16:                                               ; preds = %5, %14, %10
  ret void
}